; Function Attrs: mustprogress nounwind uwtable
define internal fastcc void @"_ZZN4llvm14CombinerHelper30tryFoldAndOrOrICmpsUsingRangesEPNS_13GLogicalBinOpERSt8functionIFvRNS_16MachineIRBuilderEEEEN3$_0D2Ev"(ptr nocapture noundef nonnull readonly align 8 dereferenceable(92) %0) unnamed_addr #0 align 2 {
  %2 = getelementptr inbounds i8, ptr %0, i64 64
  %3 = load i32, ptr %2, align 8
  %4 = icmp ugt i32 %3, 64
  br i1 %4, label %5, label %_ZN4llvm5APIntD2Ev.exit

5:                                                ; preds = %1
  %6 = getelementptr inbounds nuw i8, ptr %0, i64 56
  %7 = load ptr, ptr %6, align 8
  %8 = icmp eq ptr %7, null
  br i1 %8, label %_ZN4llvm5APIntD2Ev.exit, label %9

9:                                                ; preds = %5
  tail call void @_ZdaPv(ptr noundef nonnull %7) #31
  br label %_ZN4llvm5APIntD2Ev.exit

_ZN4llvm5APIntD2Ev.exit:                          ; preds = %1, %5, %9
  %10 = getelementptr inbounds i8, ptr %0, i64 40
  %11 = load i32, ptr %10, align 8
  %12 = icmp ugt i32 %11, 64
  br i1 %12, label %13, label %_ZN4llvm5APIntD2Ev.exit1

13:                                               ; preds = %_ZN4llvm5APIntD2Ev.exit
  %14 = getelementptr inbounds nuw i8, ptr %0, i64 32
  %15 = load ptr, ptr %14, align 8
  %16 = icmp eq ptr %15, null
  br i1 %16, label %_ZN4llvm5APIntD2Ev.exit1, label %17

17:                                               ; preds = %13
  tail call void @_ZdaPv(ptr noundef nonnull %15) #31
  br label %_ZN4llvm5APIntD2Ev.exit1

_ZN4llvm5APIntD2Ev.exit1:                         ; preds = %_ZN4llvm5APIntD2Ev.exit, %13, %17
  %18 = getelementptr inbounds i8, ptr %0, i64 16
  %19 = load i32, ptr %18, align 8
  %20 = icmp ugt i32 %19, 64
  br i1 %20, label %21, label %_ZN4llvm5APIntD2Ev.exit2

21:                                               ; preds = %_ZN4llvm5APIntD2Ev.exit1
  %22 = getelementptr inbounds nuw i8, ptr %0, i64 8
  %23 = load ptr, ptr %22, align 8
  %24 = icmp eq ptr %23, null
  br i1 %24, label %_ZN4llvm5APIntD2Ev.exit2, label %25

25:                                               ; preds = %21
  tail call void @_ZdaPv(ptr noundef nonnull %23) #31
  br label %_ZN4llvm5APIntD2Ev.exit2

_ZN4llvm5APIntD2Ev.exit2:                         ; preds = %_ZN4llvm5APIntD2Ev.exit1, %21, %25
  ret void
}